; Function Attrs: nofree norecurse nosync nounwind memory(argmem: readwrite) uwtable
define internal void @blend_addition_16bit(ptr noundef readonly captures(none) %0, i64 noundef %1, ptr noundef readonly captures(none) %2, i64 noundef %3, ptr noundef writeonly captures(none) %4, i64 noundef %5, i64 noundef %6, i64 noundef %7, ptr noundef readonly captures(none) %8, ptr readnone captures(none) %9) #6 {
  %11 = getelementptr inbounds nuw i8, ptr %8, i64 8
  %12 = load double, ptr %11, align 8, !tbaa !70
  %13 = fptrunc nsz double %12 to float
  %14 = lshr i64 %5, 1
  %15 = lshr i64 %1, 1
  %16 = lshr i64 %3, 1
  %17 = icmp sgt i64 %7, 0
  %18 = icmp sgt i64 %6, 0
  %or.cond = and i1 %17, %18
  br i1 %or.cond, label %.preheader.us, label %._crit_edge44

.preheader.us:                                    ; preds = %10, %._crit_edge.us
  %indvars.iv48 = phi i64 [ %indvars.iv.next49, %._crit_edge.us ], [ 0, %10 ]
  %.03442.us = phi ptr [ %33, %._crit_edge.us ], [ %4, %10 ]
  %.03541.us = phi ptr [ %35, %._crit_edge.us ], [ %2, %10 ]
  %.03640.us = phi ptr [ %34, %._crit_edge.us ], [ %0, %10 ]
  br label %19

19:                                               ; preds = %.preheader.us, %19
  %indvars.iv = phi i64 [ 0, %.preheader.us ], [ %indvars.iv.next, %19 ]
  %20 = getelementptr inbounds nuw i16, ptr %.03640.us, i64 %indvars.iv
  %21 = load i16, ptr %20, align 2, !tbaa !85
  %22 = zext i16 %21 to i32
  %23 = uitofp i16 %21 to float
  %24 = getelementptr inbounds nuw i16, ptr %.03541.us, i64 %indvars.iv
  %25 = load i16, ptr %24, align 2, !tbaa !85
  %26 = zext i16 %25 to i32
  %27 = add nuw nsw i32 %26, %22
  %spec.select.us = tail call i32 @llvm.umin.i32(i32 %27, i32 65535)
  %28 = sub nsw i32 %spec.select.us, %22
  %29 = sitofp i32 %28 to float
  %30 = tail call nsz float @llvm.fmuladd.f32(float %29, float %13, float %23)
  %31 = fptoui float %30 to i16
  %32 = getelementptr inbounds nuw i16, ptr %.03442.us, i64 %indvars.iv
  store i16 %31, ptr %32, align 2, !tbaa !85
  %indvars.iv.next = add nuw nsw i64 %indvars.iv, 1
  %exitcond.not = icmp eq i64 %indvars.iv.next, %6
  br i1 %exitcond.not, label %._crit_edge.us, label %19, !llvm.loop !486

._crit_edge.us:                                   ; preds = %19
  %33 = getelementptr inbounds nuw i16, ptr %.03442.us, i64 %14
  %34 = getelementptr inbounds nuw i16, ptr %.03640.us, i64 %15
  %35 = getelementptr inbounds nuw i16, ptr %.03541.us, i64 %16
  %indvars.iv.next49 = add nuw nsw i64 %indvars.iv48, 1
  %exitcond51.not = icmp eq i64 %indvars.iv.next49, %7
  br i1 %exitcond51.not, label %._crit_edge44, label %.preheader.us, !llvm.loop !487

._crit_edge44:                                    ; preds = %._crit_edge.us, %10
  ret void
}